target datalayout = "e-m:e-p270:32:32-p271:32:32-p272:64:64-i64:64-i128:128-f80:128-n8:16:32:64-S128"
target triple = "x86_64-pc-linux-gnu"

%"class.llvm::SmallPtrSetImplBase.base" = type <{ ptr, ptr, i32, i32, i32 }>
%"class.std::optional.80" = type { %"struct.std::_Optional_base.81" }
%"struct.std::_Optional_base.81" = type { %"struct.std::_Optional_payload.83" }
%"struct.std::_Optional_payload.83" = type { %"struct.std::_Optional_payload.base.88", [7 x i8] }
%"struct.std::_Optional_payload.base.88" = type { %"struct.std::_Optional_payload_base.base.87" }
%"struct.std::_Optional_payload_base.base.87" = type { %"union.std::_Optional_payload_base<llvm::CostBenefitPair>::_Storage", i8 }
%"union.std::_Optional_payload_base<llvm::CostBenefitPair>::_Storage" = type { %"class.llvm::CostBenefitPair" }
%"class.llvm::CostBenefitPair" = type { %"class.llvm::APInt", %"class.llvm::APInt" }
%"class.llvm::APInt" = type <{ %union.anon.86, i32, [4 x i8] }>
%union.anon.86 = type { i64 }
%"class.llvm::function_ref.79" = type { ptr, i64 }
%"class.llvm::function_ref" = type { ptr, i64 }
%"class.(anonymous namespace)::InlineCostCallAnalyzer" = type { %"class.(anonymous namespace)::CallAnalyzer", i8, i32, i32, i32, ptr, %"class.llvm::DenseMap.115", i32, i32, i8, i8, i8, i32, i32, i32, i8, i8, [6 x i8], %"class.std::optional.80", i8, i32, i32, [4 x i8], %"class.llvm::DenseMap.118", %"class.(anonymous namespace)::InlineCostAnnotationWriter" }
%"class.(anonymous namespace)::CallAnalyzer" = type { ptr, ptr, %"class.llvm::function_ref", %"class.llvm::function_ref.79", ptr, ptr, ptr, ptr, ptr, i8, i8, i8, i8, i8, i8, i8, i8, i8, i64, i32, i32, %"class.llvm::DenseMap", %"class.llvm::DenseMap.97", %"class.llvm::DenseSet", %"class.llvm::DenseMap.103", %"class.llvm::SmallPtrSet.106", %"class.llvm::DenseMap.109", i8, i8, %"class.llvm::SmallPtrSet.112", i32, i32, i32, i32, i32, i32 }
%"class.llvm::DenseMap" = type <{ ptr, i32, i32, i32, [4 x i8] }>
%"class.llvm::DenseMap.97" = type <{ ptr, i32, i32, i32, [4 x i8] }>
%"class.llvm::DenseSet" = type { %"class.llvm::detail::DenseSetImpl" }
%"class.llvm::detail::DenseSetImpl" = type { %"class.llvm::DenseMap.100" }
%"class.llvm::DenseMap.100" = type <{ ptr, i32, i32, i32, [4 x i8] }>
%"class.llvm::DenseMap.103" = type <{ ptr, i32, i32, i32, [4 x i8] }>
%"class.llvm::SmallPtrSet.106" = type { %"class.llvm::SmallPtrSetImpl.base.108", [16 x ptr] }
%"class.llvm::SmallPtrSetImpl.base.108" = type { %"class.llvm::SmallPtrSetImplBase.base" }
%"class.llvm::DenseMap.109" = type <{ ptr, i32, i32, i32, [4 x i8] }>
%"class.llvm::SmallPtrSet.112" = type { %"class.llvm::SmallPtrSetImpl.base.114", [16 x ptr] }
%"class.llvm::SmallPtrSetImpl.base.114" = type { %"class.llvm::SmallPtrSetImplBase.base" }
%"class.llvm::DenseMap.115" = type <{ ptr, i32, i32, i32, [4 x i8] }>
%"class.llvm::DenseMap.118" = type <{ ptr, i32, i32, i32, [4 x i8] }>
%"class.(anonymous namespace)::InlineCostAnnotationWriter" = type { %"class.llvm::AssemblyAnnotationWriter", ptr }
%"class.llvm::AssemblyAnnotationWriter" = type { ptr }

; Function Attrs: mustprogress nounwind uwtable
define internal noundef zeroext i1 @_ZN12_GLOBAL__N_122InlineCostCallAnalyzer10shouldStopEv(ptr noundef nonnull align 8 dereferenceable(768) %0) unnamed_addr #1 align 2 {
  %2 = alloca i1, align 1
  %3 = alloca ptr, align 8
  store ptr %0, ptr %3, align 8
  %4 = load ptr, ptr %3, align 8
  %5 = getelementptr inbounds nuw %"class.(anonymous namespace)::InlineCostCallAnalyzer", ptr %4, i32 0, i32 10
  %6 = load i8, ptr %5, align 1
  %7 = trunc i8 %6 to i1
  br i1 %7, label %12, label %8

8:                                                ; preds = %1
  %9 = getelementptr inbounds nuw %"class.(anonymous namespace)::InlineCostCallAnalyzer", ptr %4, i32 0, i32 1
  %10 = load i8, ptr %9, align 8
  %11 = trunc i8 %10 to i1
  br i1 %11, label %12, label %13

12:                                               ; preds = %8, %1
  store i1 false, ptr %2, align 1
  br label %22

13:                                               ; preds = %8
  %14 = getelementptr inbounds nuw %"class.(anonymous namespace)::InlineCostCallAnalyzer", ptr %4, i32 0, i32 12
  %15 = load i32, ptr %14, align 4
  %16 = getelementptr inbounds nuw %"class.(anonymous namespace)::InlineCostCallAnalyzer", ptr %4, i32 0, i32 7
  %17 = load i32, ptr %16, align 8
  %18 = icmp slt i32 %15, %17
  br i1 %18, label %19, label %20

19:                                               ; preds = %13
  store i1 false, ptr %2, align 1
  br label %22

20:                                               ; preds = %13
  %21 = getelementptr inbounds nuw %"class.(anonymous namespace)::InlineCostCallAnalyzer", ptr %4, i32 0, i32 15
  store i8 1, ptr %21, align 8
  store i1 true, ptr %2, align 1
  br label %22

22:                                               ; preds = %20, %19, %12
  %23 = load i1, ptr %2, align 1
  ret i1 %23
}